target datalayout = "e-m:e-p270:32:32-p271:32:32-p272:64:64-i64:64-i128:128-f80:128-n8:16:32:64-S128"
target triple = "x86_64-pc-linux-gnu"

%class.dtPathCorridor = type { [3 x float], [3 x float], ptr, i32, i32 }

@.str.1 = private unnamed_addr constant [153 x i8] c"generated/home/dtcxzyw/WorkSpace/Projects/compilers/llvm-opt-benchmark/bench/recastnavigation/recastnavigation/DetourCrowd/Source/DetourPathCorridor.cpp\00", align 1
@.str.3 = private unnamed_addr constant [7 x i8] c"m_path\00", align 1
@.str.4 = private unnamed_addr constant [8 x i8] c"m_npath\00", align 1

; Function Attrs: mustprogress nounwind uwtable
define linkonce_odr noundef i32 @_Z5dtMaxIiET_S0_S0_(i32 noundef %0, i32 noundef %1) #1 comdat {
  %3 = alloca i32, align 4
  %4 = alloca i32, align 4
  store i32 %0, ptr %3, align 4
  store i32 %1, ptr %4, align 4
  %5 = load i32, ptr %3, align 4
  %6 = load i32, ptr %4, align 4
  %7 = icmp sgt i32 %5, %6
  br i1 %7, label %8, label %10

8:                                                ; preds = %2
  %9 = load i32, ptr %3, align 4
  br label %12

10:                                               ; preds = %2
  %11 = load i32, ptr %4, align 4
  br label %12

12:                                               ; preds = %10, %8
  %13 = phi i32 [ %9, %8 ], [ %11, %10 ]
  ret i32 %13
}

; Function Attrs: mustprogress nounwind uwtable
define linkonce_odr noundef i32 @_Z5dtMinIiET_S0_S0_(i32 noundef %0, i32 noundef %1) #1 comdat {
  %3 = alloca i32, align 4
  %4 = alloca i32, align 4
  store i32 %0, ptr %3, align 4
  store i32 %1, ptr %4, align 4
  %5 = load i32, ptr %3, align 4
  %6 = load i32, ptr %4, align 4
  %7 = icmp slt i32 %5, %6
  br i1 %7, label %8, label %10

8:                                                ; preds = %2
  %9 = load i32, ptr %3, align 4
  br label %12

10:                                               ; preds = %2
  %11 = load i32, ptr %4, align 4
  br label %12

12:                                               ; preds = %10, %8
  %13 = phi i32 [ %9, %8 ], [ %11, %10 ]
  ret i32 %13
}

; Function Attrs: mustprogress nounwind uwtable
define linkonce_odr void @_Z7dtVcopyPfPKf(ptr noundef %0, ptr noundef %1) #1 comdat {
  %3 = alloca ptr, align 8
  %4 = alloca ptr, align 8
  store ptr %0, ptr %3, align 8
  store ptr %1, ptr %4, align 8
  %5 = load ptr, ptr %4, align 8
  %6 = getelementptr inbounds float, ptr %5, i64 0
  %7 = load float, ptr %6, align 4
  %8 = load ptr, ptr %3, align 8
  %9 = getelementptr inbounds float, ptr %8, i64 0
  store float %7, ptr %9, align 4
  %10 = load ptr, ptr %4, align 8
  %11 = getelementptr inbounds float, ptr %10, i64 1
  %12 = load float, ptr %11, align 4
  %13 = load ptr, ptr %3, align 8
  %14 = getelementptr inbounds float, ptr %13, i64 1
  store float %12, ptr %14, align 4
  %15 = load ptr, ptr %4, align 8
  %16 = getelementptr inbounds float, ptr %15, i64 2
  %17 = load float, ptr %16, align 4
  %18 = load ptr, ptr %3, align 8
  %19 = getelementptr inbounds float, ptr %18, i64 2
  store float %17, ptr %19, align 4
  ret void
}

; Function Attrs: mustprogress uwtable
define noundef i32 @_Z25dtMergeCorridorStartMovedPjiiPKji(ptr noundef %0, i32 noundef %1, i32 noundef %2, ptr noundef %3, i32 noundef %4) #0 {
  %6 = alloca i32, align 4
  %7 = alloca ptr, align 8
  %8 = alloca i32, align 4
  %9 = alloca i32, align 4
  %10 = alloca ptr, align 8
  %11 = alloca i32, align 4
  %12 = alloca i32, align 4
  %13 = alloca i32, align 4
  %14 = alloca i32, align 4
  %15 = alloca i8, align 1
  %16 = alloca i32, align 4
  %17 = alloca i32, align 4
  %18 = alloca i32, align 4
  %19 = alloca i32, align 4
  %20 = alloca i32, align 4
  %21 = alloca i32, align 4
  store ptr %0, ptr %7, align 8
  store i32 %1, ptr %8, align 4
  store i32 %2, ptr %9, align 4
  store ptr %3, ptr %10, align 8
  store i32 %4, ptr %11, align 4
  store i32 -1, ptr %12, align 4
  store i32 -1, ptr %13, align 4
  %22 = load i32, ptr %8, align 4
  %23 = sub nsw i32 %22, 1
  store i32 %23, ptr %14, align 4
  br label %24

24:                                               ; preds = %57, %5
  %25 = load i32, ptr %14, align 4
  %26 = icmp sge i32 %25, 0
  br i1 %26, label %27, label %60

27:                                               ; preds = %24
  store i8 0, ptr %15, align 1
  %28 = load i32, ptr %11, align 4
  %29 = sub nsw i32 %28, 1
  store i32 %29, ptr %16, align 4
  br label %30

30:                                               ; preds = %49, %27
  %31 = load i32, ptr %16, align 4
  %32 = icmp sge i32 %31, 0
  br i1 %32, label %33, label %52

33:                                               ; preds = %30
  %34 = load ptr, ptr %7, align 8
  %35 = load i32, ptr %14, align 4
  %36 = sext i32 %35 to i64
  %37 = getelementptr inbounds i32, ptr %34, i64 %36
  %38 = load i32, ptr %37, align 4
  %39 = load ptr, ptr %10, align 8
  %40 = load i32, ptr %16, align 4
  %41 = sext i32 %40 to i64
  %42 = getelementptr inbounds i32, ptr %39, i64 %41
  %43 = load i32, ptr %42, align 4
  %44 = icmp eq i32 %38, %43
  br i1 %44, label %45, label %48

45:                                               ; preds = %33
  %46 = load i32, ptr %14, align 4
  store i32 %46, ptr %12, align 4
  %47 = load i32, ptr %16, align 4
  store i32 %47, ptr %13, align 4
  store i8 1, ptr %15, align 1
  br label %48

48:                                               ; preds = %45, %33
  br label %49

49:                                               ; preds = %48
  %50 = load i32, ptr %16, align 4
  %51 = add nsw i32 %50, -1
  store i32 %51, ptr %16, align 4
  br label %30, !llvm.loop !4

52:                                               ; preds = %30
  %53 = load i8, ptr %15, align 1
  %54 = trunc i8 %53 to i1
  br i1 %54, label %55, label %56

55:                                               ; preds = %52
  br label %60

56:                                               ; preds = %52
  br label %57

57:                                               ; preds = %56
  %58 = load i32, ptr %14, align 4
  %59 = add nsw i32 %58, -1
  store i32 %59, ptr %14, align 4
  br label %24, !llvm.loop !6

60:                                               ; preds = %55, %24
  %61 = load i32, ptr %12, align 4
  %62 = icmp eq i32 %61, -1
  br i1 %62, label %66, label %63

63:                                               ; preds = %60
  %64 = load i32, ptr %13, align 4
  %65 = icmp eq i32 %64, -1
  br i1 %65, label %66, label %68

66:                                               ; preds = %63, %60
  %67 = load i32, ptr %8, align 4
  store i32 %67, ptr %6, align 4
  br label %132

68:                                               ; preds = %63
  %69 = load i32, ptr %11, align 4
  %70 = load i32, ptr %13, align 4
  %71 = sub nsw i32 %69, %70
  store i32 %71, ptr %17, align 4
  %72 = load i32, ptr %12, align 4
  %73 = add nsw i32 %72, 1
  %74 = load i32, ptr %8, align 4
  %75 = call noundef i32 @_Z5dtMinIiET_S0_S0_(i32 noundef %73, i32 noundef %74)
  store i32 %75, ptr %18, align 4
  %76 = load i32, ptr %8, align 4
  %77 = load i32, ptr %18, align 4
  %78 = sub nsw i32 %76, %77
  %79 = call noundef i32 @_Z5dtMaxIiET_S0_S0_(i32 noundef 0, i32 noundef %78)
  store i32 %79, ptr %19, align 4
  %80 = load i32, ptr %17, align 4
  %81 = load i32, ptr %19, align 4
  %82 = add nsw i32 %80, %81
  %83 = load i32, ptr %9, align 4
  %84 = icmp sgt i32 %82, %83
  br i1 %84, label %85, label %89

85:                                               ; preds = %68
  %86 = load i32, ptr %9, align 4
  %87 = load i32, ptr %17, align 4
  %88 = sub nsw i32 %86, %87
  store i32 %88, ptr %19, align 4
  br label %89

89:                                               ; preds = %85, %68
  %90 = load i32, ptr %19, align 4
  %91 = icmp sgt i32 %90, 0
  br i1 %91, label %92, label %104

92:                                               ; preds = %89
  %93 = load ptr, ptr %7, align 8
  %94 = load i32, ptr %17, align 4
  %95 = sext i32 %94 to i64
  %96 = getelementptr inbounds i32, ptr %93, i64 %95
  %97 = load ptr, ptr %7, align 8
  %98 = load i32, ptr %18, align 4
  %99 = sext i32 %98 to i64
  %100 = getelementptr inbounds i32, ptr %97, i64 %99
  %101 = load i32, ptr %19, align 4
  %102 = sext i32 %101 to i64
  %103 = mul i64 %102, 4
  call void @llvm.memmove.p0.p0.i64(ptr align 4 %96, ptr align 4 %100, i64 %103, i1 false)
  br label %104

104:                                              ; preds = %92, %89
  store i32 0, ptr %20, align 4
  %105 = load i32, ptr %17, align 4
  %106 = load i32, ptr %9, align 4
  %107 = call noundef i32 @_Z5dtMinIiET_S0_S0_(i32 noundef %105, i32 noundef %106)
  store i32 %107, ptr %21, align 4
  br label %108

108:                                              ; preds = %125, %104
  %109 = load i32, ptr %20, align 4
  %110 = load i32, ptr %21, align 4
  %111 = icmp slt i32 %109, %110
  br i1 %111, label %112, label %128

112:                                              ; preds = %108
  %113 = load ptr, ptr %10, align 8
  %114 = load i32, ptr %11, align 4
  %115 = sub nsw i32 %114, 1
  %116 = load i32, ptr %20, align 4
  %117 = sub nsw i32 %115, %116
  %118 = sext i32 %117 to i64
  %119 = getelementptr inbounds i32, ptr %113, i64 %118
  %120 = load i32, ptr %119, align 4
  %121 = load ptr, ptr %7, align 8
  %122 = load i32, ptr %20, align 4
  %123 = sext i32 %122 to i64
  %124 = getelementptr inbounds i32, ptr %121, i64 %123
  store i32 %120, ptr %124, align 4
  br label %125

125:                                              ; preds = %112
  %126 = load i32, ptr %20, align 4
  %127 = add nsw i32 %126, 1
  store i32 %127, ptr %20, align 4
  br label %108, !llvm.loop !7

128:                                              ; preds = %108
  %129 = load i32, ptr %17, align 4
  %130 = load i32, ptr %19, align 4
  %131 = add nsw i32 %129, %130
  store i32 %131, ptr %6, align 4
  br label %132

132:                                              ; preds = %128, %66
  %133 = load i32, ptr %6, align 4
  ret i32 %133
}

; Function Attrs: mustprogress nounwind uwtable
define linkonce_odr noundef zeroext i1 @_Z15dtStatusSucceedj(i32 noundef %0) #1 comdat {
  %2 = alloca i32, align 4
  store i32 %0, ptr %2, align 4
  %3 = load i32, ptr %2, align 4
  %4 = and i32 %3, 1073741824
  %5 = icmp ne i32 %4, 0
  ret i1 %5
}

; Function Attrs: mustprogress uwtable
define noundef zeroext i1 @_ZN14dtPathCorridor12movePositionEPKfP14dtNavMeshQueryPK13dtQueryFilter(ptr noundef nonnull align 8 dereferenceable(40) %0, ptr noundef %1, ptr noundef %2, ptr noundef %3) #0 align 2 {
  %5 = alloca i1, align 1
  %6 = alloca ptr, align 8
  %7 = alloca ptr, align 8
  %8 = alloca ptr, align 8
  %9 = alloca ptr, align 8
  %10 = alloca ptr, align 8
  %11 = alloca ptr, align 8
  %12 = alloca [3 x float], align 4
  %13 = alloca [16 x i32], align 16
  %14 = alloca i32, align 4
  %15 = alloca i32, align 4
  %16 = alloca float, align 4
  store ptr %0, ptr %6, align 8
  store ptr %1, ptr %7, align 8
  store ptr %2, ptr %8, align 8
  store ptr %3, ptr %9, align 8
  %17 = load ptr, ptr %6, align 8
  %18 = call noundef ptr @_Z21dtAssertFailGetCustomv()
  store ptr %18, ptr %10, align 8
  %19 = load ptr, ptr %10, align 8
  %20 = icmp eq ptr %19, null
  br i1 %20, label %21, label %22

21:                                               ; preds = %4
  br label %29

22:                                               ; preds = %4
  %23 = getelementptr inbounds %class.dtPathCorridor, ptr %17, i32 0, i32 2
  %24 = load ptr, ptr %23, align 8
  %25 = icmp ne ptr %24, null
  br i1 %25, label %28, label %26

26:                                               ; preds = %22
  %27 = load ptr, ptr %10, align 8
  call void %27(ptr noundef @.str.3, ptr noundef @.str.1, i32 noundef 441)
  br label %28

28:                                               ; preds = %26, %22
  br label %29

29:                                               ; preds = %28, %21
  %30 = call noundef ptr @_Z21dtAssertFailGetCustomv()
  store ptr %30, ptr %11, align 8
  %31 = load ptr, ptr %11, align 8
  %32 = icmp eq ptr %31, null
  br i1 %32, label %33, label %34

33:                                               ; preds = %29
  br label %41

34:                                               ; preds = %29
  %35 = getelementptr inbounds %class.dtPathCorridor, ptr %17, i32 0, i32 3
  %36 = load i32, ptr %35, align 8
  %37 = icmp ne i32 %36, 0
  br i1 %37, label %40, label %38

38:                                               ; preds = %34
  %39 = load ptr, ptr %11, align 8
  call void %39(ptr noundef @.str.4, ptr noundef @.str.1, i32 noundef 442)
  br label %40

40:                                               ; preds = %38, %34
  br label %41

41:                                               ; preds = %40, %33
  store i32 0, ptr %14, align 4
  %42 = load ptr, ptr %8, align 8
  %43 = getelementptr inbounds %class.dtPathCorridor, ptr %17, i32 0, i32 2
  %44 = load ptr, ptr %43, align 8
  %45 = getelementptr inbounds i32, ptr %44, i64 0
  %46 = load i32, ptr %45, align 4
  %47 = getelementptr inbounds %class.dtPathCorridor, ptr %17, i32 0, i32 0
  %48 = getelementptr inbounds [3 x float], ptr %47, i64 0, i64 0
  %49 = load ptr, ptr %7, align 8
  %50 = load ptr, ptr %9, align 8
  %51 = getelementptr inbounds [3 x float], ptr %12, i64 0, i64 0
  %52 = getelementptr inbounds [16 x i32], ptr %13, i64 0, i64 0
  %53 = call noundef i32 @_ZNK14dtNavMeshQuery16moveAlongSurfaceEjPKfS1_PK13dtQueryFilterPfPjPii(ptr noundef nonnull align 8 dereferenceable(104) %42, i32 noundef %46, ptr noundef %48, ptr noundef %49, ptr noundef %50, ptr noundef %51, ptr noundef %52, ptr noundef %14, i32 noundef 16)
  store i32 %53, ptr %15, align 4
  %54 = load i32, ptr %15, align 4
  %55 = call noundef zeroext i1 @_Z15dtStatusSucceedj(i32 noundef %54)
  br i1 %55, label %56, label %82

56:                                               ; preds = %41
  %57 = getelementptr inbounds %class.dtPathCorridor, ptr %17, i32 0, i32 2
  %58 = load ptr, ptr %57, align 8
  %59 = getelementptr inbounds %class.dtPathCorridor, ptr %17, i32 0, i32 3
  %60 = load i32, ptr %59, align 8
  %61 = getelementptr inbounds %class.dtPathCorridor, ptr %17, i32 0, i32 4
  %62 = load i32, ptr %61, align 4
  %63 = getelementptr inbounds [16 x i32], ptr %13, i64 0, i64 0
  %64 = load i32, ptr %14, align 4
  %65 = call noundef i32 @_Z25dtMergeCorridorStartMovedPjiiPKji(ptr noundef %58, i32 noundef %60, i32 noundef %62, ptr noundef %63, i32 noundef %64)
  %66 = getelementptr inbounds %class.dtPathCorridor, ptr %17, i32 0, i32 3
  store i32 %65, ptr %66, align 8
  %67 = getelementptr inbounds %class.dtPathCorridor, ptr %17, i32 0, i32 0
  %68 = getelementptr inbounds [3 x float], ptr %67, i64 0, i64 1
  %69 = load float, ptr %68, align 4
  store float %69, ptr %16, align 4
  %70 = load ptr, ptr %8, align 8
  %71 = getelementptr inbounds %class.dtPathCorridor, ptr %17, i32 0, i32 2
  %72 = load ptr, ptr %71, align 8
  %73 = getelementptr inbounds i32, ptr %72, i64 0
  %74 = load i32, ptr %73, align 4
  %75 = getelementptr inbounds [3 x float], ptr %12, i64 0, i64 0
  %76 = call noundef i32 @_ZNK14dtNavMeshQuery13getPolyHeightEjPKfPf(ptr noundef nonnull align 8 dereferenceable(104) %70, i32 noundef %74, ptr noundef %75, ptr noundef %16)
  %77 = load float, ptr %16, align 4
  %78 = getelementptr inbounds [3 x float], ptr %12, i64 0, i64 1
  store float %77, ptr %78, align 4
  %79 = getelementptr inbounds %class.dtPathCorridor, ptr %17, i32 0, i32 0
  %80 = getelementptr inbounds [3 x float], ptr %79, i64 0, i64 0
  %81 = getelementptr inbounds [3 x float], ptr %12, i64 0, i64 0
  call void @_Z7dtVcopyPfPKf(ptr noundef %80, ptr noundef %81)
  store i1 true, ptr %5, align 1
  br label %83

82:                                               ; preds = %41
  store i1 false, ptr %5, align 1
  br label %83

83:                                               ; preds = %82, %56
  %84 = load i1, ptr %5, align 1
  ret i1 %84
}