; Function Attrs: mustprogress uwtable
define noundef zeroext i1 @_ZN14dtPathCorridor12movePositionEPKfP14dtNavMeshQueryPK13dtQueryFilter(ptr noundef nonnull align 8 dereferenceable(40) %0, ptr noundef %1, ptr noundef %2, ptr noundef %3) local_unnamed_addr #2 align 2 {
  %5 = alloca [3 x float], align 4
  %6 = alloca [16 x i32], align 16
  %7 = alloca i32, align 4
  %8 = alloca float, align 4
  %9 = tail call noundef ptr @_Z21dtAssertFailGetCustomv()
  %10 = icmp ne ptr %9, null
  %11 = getelementptr inbounds nuw i8, ptr %0, i64 24
  %12 = load ptr, ptr %11, align 8
  %.not = icmp eq ptr %12, null
  %or.cond = select i1 %10, i1 %.not, i1 false
  br i1 %or.cond, label %13, label %14

13:                                               ; preds = %4
  tail call void %9(ptr noundef nonnull @.str.3, ptr noundef nonnull @.str.1, i32 noundef 441)
  br label %14

14:                                               ; preds = %13, %4
  %15 = tail call noundef ptr @_Z21dtAssertFailGetCustomv()
  %16 = icmp ne ptr %15, null
  %17 = getelementptr inbounds nuw i8, ptr %0, i64 32
  %18 = load i32, ptr %17, align 8
  %.not12 = icmp eq i32 %18, 0
  %or.cond15 = select i1 %16, i1 %.not12, i1 false
  br i1 %or.cond15, label %19, label %20

19:                                               ; preds = %14
  tail call void %15(ptr noundef nonnull @.str.4, ptr noundef nonnull @.str.1, i32 noundef 442)
  br label %20

20:                                               ; preds = %19, %14
  store i32 0, ptr %7, align 4
  %21 = load ptr, ptr %11, align 8
  %22 = load i32, ptr %21, align 4
  %23 = call noundef i32 @_ZNK14dtNavMeshQuery16moveAlongSurfaceEjPKfS1_PK13dtQueryFilterPfPjPii(ptr noundef nonnull align 8 dereferenceable(104) %2, i32 noundef %22, ptr noundef nonnull %0, ptr noundef %1, ptr noundef %3, ptr noundef nonnull %5, ptr noundef nonnull %6, ptr noundef nonnull %7, i32 noundef 16)
  %24 = and i32 %23, 1073741824
  %25 = icmp ne i32 %24, 0
  br i1 %25, label %26, label %85

26:                                               ; preds = %20
  %27 = load ptr, ptr %11, align 8
  %28 = load i32, ptr %17, align 8
  %29 = getelementptr inbounds nuw i8, ptr %0, i64 36
  %30 = load i32, ptr %29, align 4
  %31 = load i32, ptr %7, align 4
  %32 = icmp sgt i32 %31, 0
  br i1 %32, label %.split.us.preheader.i, label %_Z25dtMergeCorridorStartMovedPjiiPKji.exit

.split.us.preheader.i:                            ; preds = %26
  %33 = zext nneg i32 %31 to i64
  %34 = zext i32 %28 to i64
  br label %.split.us.i

.split.us.i:                                      ; preds = %._crit_edge.us.i, %.split.us.preheader.i
  %indvars.iv69.i = phi i64 [ %34, %.split.us.preheader.i ], [ %indvars.iv.next70.i, %._crit_edge.us.i ]
  %.049.us.i = phi i32 [ -1, %.split.us.preheader.i ], [ %.352.us.i, %._crit_edge.us.i ]
  %.048.us.i = phi i32 [ -1, %.split.us.preheader.i ], [ %.3.us.i, %._crit_edge.us.i ]
  %indvars.iv.next70.i = add nsw i64 %indvars.iv69.i, -1
  %indvars.i = trunc i64 %indvars.iv.next70.i to i32
  %35 = trunc nuw i64 %indvars.iv69.i to i32
  %36 = icmp sgt i32 %35, 0
  br i1 %36, label %.preheader.us.i, label %.split65.us.i

37:                                               ; preds = %.preheader.us.i, %37
  %indvars.iv.i = phi i64 [ %33, %.preheader.us.i ], [ %indvars.iv.next.i, %37 ]
  %.261.us.i = phi i32 [ %.048.us.i, %.preheader.us.i ], [ %.3.us.i, %37 ]
  %.25160.us.i = phi i32 [ %.049.us.i, %.preheader.us.i ], [ %.352.us.i, %37 ]
  %.05458.us.i = phi i1 [ false, %.preheader.us.i ], [ %.155.us.i, %37 ]
  %indvars.iv.next.i = add nsw i64 %indvars.iv.i, -1
  %38 = getelementptr inbounds nuw i32, ptr %6, i64 %indvars.iv.next.i
  %39 = load i32, ptr %38, align 4
  %40 = icmp eq i32 %45, %39
  %.155.us.i = select i1 %40, i1 true, i1 %.05458.us.i
  %41 = trunc nuw nsw i64 %indvars.iv.next.i to i32
  %.352.us.i = select i1 %40, i32 %41, i32 %.25160.us.i
  %.3.us.i = select i1 %40, i32 %indvars.i, i32 %.261.us.i
  %42 = icmp sgt i64 %indvars.iv.i, 1
  br i1 %42, label %37, label %._crit_edge.us.i, !llvm.loop !4

.preheader.us.i:                                  ; preds = %.split.us.i
  %43 = and i64 %indvars.iv.next70.i, 4294967295
  %44 = getelementptr inbounds nuw i32, ptr %27, i64 %43
  %45 = load i32, ptr %44, align 4
  br label %37

._crit_edge.us.i:                                 ; preds = %37
  br i1 %.155.us.i, label %.split65.us.i, label %.split.us.i, !llvm.loop !6

.split65.us.i:                                    ; preds = %._crit_edge.us.i, %.split.us.i
  %.us-phi.i = phi i32 [ %.049.us.i, %.split.us.i ], [ %.352.us.i, %._crit_edge.us.i ]
  %.us-phi66.i = phi i32 [ %.048.us.i, %.split.us.i ], [ %.3.us.i, %._crit_edge.us.i ]
  %46 = icmp eq i32 %.us-phi66.i, -1
  %47 = icmp eq i32 %.us-phi.i, -1
  %or.cond.i = select i1 %46, i1 true, i1 %47
  br i1 %or.cond.i, label %_Z25dtMergeCorridorStartMovedPjiiPKji.exit, label %48

48:                                               ; preds = %.split65.us.i
  %49 = sub nsw i32 %31, %.us-phi.i
  %50 = add nuw nsw i32 %.us-phi66.i, 1
  %51 = call noundef i32 @llvm.smin.i32(i32 %50, i32 %28)
  %52 = sub nsw i32 %28, %51
  %53 = add nsw i32 %52, %49
  %54 = icmp sgt i32 %53, %30
  %55 = sub nsw i32 %30, %49
  %spec.select.i = select i1 %54, i32 %55, i32 %52
  %56 = icmp sgt i32 %spec.select.i, 0
  br i1 %56, label %57, label %64

57:                                               ; preds = %48
  %58 = sext i32 %49 to i64
  %59 = getelementptr inbounds i32, ptr %27, i64 %58
  %60 = sext i32 %51 to i64
  %61 = getelementptr inbounds i32, ptr %27, i64 %60
  %62 = zext nneg i32 %spec.select.i to i64
  %63 = shl nuw nsw i64 %62, 2
  call void @llvm.memmove.p0.p0.i64(ptr align 4 %59, ptr align 4 %61, i64 %63, i1 false)
  br label %64

64:                                               ; preds = %57, %48
  %65 = call noundef i32 @llvm.smin.i32(i32 %49, i32 %30)
  %66 = icmp sgt i32 %65, 0
  br i1 %66, label %.lr.ph.preheader.i, label %._crit_edge.i

.lr.ph.preheader.i:                               ; preds = %64
  %wide.trip.count.i = zext nneg i32 %65 to i64
  br label %.lr.ph.i

.lr.ph.i:                                         ; preds = %.lr.ph.i, %.lr.ph.preheader.i
  %indvars.iv72.i = phi i64 [ 0, %.lr.ph.preheader.i ], [ %indvars.iv.next73.i, %.lr.ph.i ]
  %67 = trunc i64 %indvars.iv72.i to i32
  %68 = xor i32 %67, -1
  %69 = add i32 %31, %68
  %70 = sext i32 %69 to i64
  %71 = getelementptr inbounds i32, ptr %6, i64 %70
  %72 = load i32, ptr %71, align 4
  %73 = getelementptr inbounds nuw i32, ptr %27, i64 %indvars.iv72.i
  store i32 %72, ptr %73, align 4
  %indvars.iv.next73.i = add nuw nsw i64 %indvars.iv72.i, 1
  %exitcond.not.i = icmp eq i64 %indvars.iv.next73.i, %wide.trip.count.i
  br i1 %exitcond.not.i, label %._crit_edge.i, label %.lr.ph.i, !llvm.loop !7

._crit_edge.i:                                    ; preds = %.lr.ph.i, %64
  %74 = add nsw i32 %spec.select.i, %49
  %.pre = load ptr, ptr %11, align 8
  br label %_Z25dtMergeCorridorStartMovedPjiiPKji.exit

_Z25dtMergeCorridorStartMovedPjiiPKji.exit:       ; preds = %26, %.split65.us.i, %._crit_edge.i
  %75 = phi ptr [ %.pre, %._crit_edge.i ], [ %27, %.split65.us.i ], [ %27, %26 ]
  %.0.i = phi i32 [ %74, %._crit_edge.i ], [ %28, %.split65.us.i ], [ %28, %26 ]
  store i32 %.0.i, ptr %17, align 8
  %76 = getelementptr inbounds nuw i8, ptr %0, i64 4
  %77 = load float, ptr %76, align 4
  store float %77, ptr %8, align 4
  %78 = load i32, ptr %75, align 4
  %79 = call noundef i32 @_ZNK14dtNavMeshQuery13getPolyHeightEjPKfPf(ptr noundef nonnull align 8 dereferenceable(104) %2, i32 noundef %78, ptr noundef nonnull %5, ptr noundef nonnull %8)
  %80 = load float, ptr %8, align 4
  %81 = load float, ptr %5, align 4
  store float %81, ptr %0, align 8
  store float %80, ptr %76, align 4
  %82 = getelementptr inbounds nuw i8, ptr %5, i64 8
  %83 = load float, ptr %82, align 4
  %84 = getelementptr inbounds nuw i8, ptr %0, i64 8
  store float %83, ptr %84, align 8
  br label %85

85:                                               ; preds = %20, %_Z25dtMergeCorridorStartMovedPjiiPKji.exit
  ret i1 %25
}